target datalayout = "e-m:e-p270:32:32-p271:32:32-p272:64:64-i64:64-i128:128-f80:128-n8:16:32:64-S128"
target triple = "x86_64-pc-linux-gnu"

%struct.asn1_string_st = type { i32, i32, ptr, i64 }

; Function Attrs: nounwind uwtable
define ptr @d2i_SCT_LIST(ptr noundef %0, ptr noundef %1, i64 noundef %2) #0 {
  %4 = alloca ptr, align 8
  %5 = alloca ptr, align 8
  %6 = alloca ptr, align 8
  %7 = alloca i64, align 8
  %8 = alloca ptr, align 8
  %9 = alloca ptr, align 8
  %10 = alloca ptr, align 8
  %11 = alloca i32, align 4
  store ptr %0, ptr %5, align 8, !tbaa !32
  store ptr %1, ptr %6, align 8, !tbaa !8
  store i64 %2, ptr %7, align 8, !tbaa !10
  call void @llvm.lifetime.start.p0(i64 8, ptr %8) #5
  store ptr null, ptr %8, align 8, !tbaa !40
  call void @llvm.lifetime.start.p0(i64 8, ptr %9) #5
  store ptr null, ptr %9, align 8, !tbaa !34
  call void @llvm.lifetime.start.p0(i64 8, ptr %10) #5
  %12 = load ptr, ptr %6, align 8, !tbaa !8
  %13 = load ptr, ptr %12, align 8, !tbaa !16
  store ptr %13, ptr %10, align 8, !tbaa !16
  %14 = load i64, ptr %7, align 8, !tbaa !10
  %15 = call ptr @d2i_ASN1_OCTET_STRING(ptr noundef %8, ptr noundef %10, i64 noundef %14)
  %16 = icmp eq ptr %15, null
  br i1 %16, label %17, label %18

17:                                               ; preds = %3
  store ptr null, ptr %4, align 8
  store i32 1, ptr %11, align 4
  br label %37

18:                                               ; preds = %3
  %19 = load ptr, ptr %8, align 8, !tbaa !40
  %20 = getelementptr inbounds nuw %struct.asn1_string_st, ptr %19, i32 0, i32 2
  %21 = load ptr, ptr %20, align 8, !tbaa !42
  store ptr %21, ptr %10, align 8, !tbaa !16
  %22 = load ptr, ptr %5, align 8, !tbaa !32
  %23 = load ptr, ptr %8, align 8, !tbaa !40
  %24 = getelementptr inbounds nuw %struct.asn1_string_st, ptr %23, i32 0, i32 0
  %25 = load i32, ptr %24, align 8, !tbaa !44
  %26 = sext i32 %25 to i64
  %27 = call ptr @o2i_SCT_LIST(ptr noundef %22, ptr noundef %10, i64 noundef %26)
  store ptr %27, ptr %9, align 8, !tbaa !34
  %28 = icmp ne ptr %27, null
  br i1 %28, label %29, label %34

29:                                               ; preds = %18
  %30 = load i64, ptr %7, align 8, !tbaa !10
  %31 = load ptr, ptr %6, align 8, !tbaa !8
  %32 = load ptr, ptr %31, align 8, !tbaa !16
  %33 = getelementptr inbounds i8, ptr %32, i64 %30
  store ptr %33, ptr %31, align 8, !tbaa !16
  br label %34

34:                                               ; preds = %29, %18
  %35 = load ptr, ptr %8, align 8, !tbaa !40
  call void @ASN1_OCTET_STRING_free(ptr noundef %35)
  %36 = load ptr, ptr %9, align 8, !tbaa !34
  store ptr %36, ptr %4, align 8
  store i32 1, ptr %11, align 4
  br label %37

37:                                               ; preds = %34, %17
  call void @llvm.lifetime.end.p0(i64 8, ptr %10) #5
  call void @llvm.lifetime.end.p0(i64 8, ptr %9) #5
  call void @llvm.lifetime.end.p0(i64 8, ptr %8) #5
  %38 = load ptr, ptr %4, align 8
  ret ptr %38
}