; Function Attrs: nounwind uwtable
define ptr @d2i_SCT_LIST(ptr noundef captures(address_is_null) %0, ptr noundef captures(none) %1, i64 noundef %2) local_unnamed_addr #0 {
  %4 = alloca ptr, align 8
  %5 = alloca ptr, align 8
  call void @llvm.lifetime.start.p0(i64 8, ptr nonnull %4) #4
  store ptr null, ptr %4, align 8, !tbaa !31
  call void @llvm.lifetime.start.p0(i64 8, ptr nonnull %5) #4
  %6 = load ptr, ptr %1, align 8, !tbaa !11
  store ptr %6, ptr %5, align 8, !tbaa !11
  %7 = call ptr @d2i_ASN1_OCTET_STRING(ptr noundef nonnull %4, ptr noundef nonnull %5, i64 noundef %2) #4
  %8 = icmp eq ptr %7, null
  br i1 %8, label %21, label %9

9:                                                ; preds = %3
  %10 = load ptr, ptr %4, align 8, !tbaa !31
  %11 = getelementptr inbounds nuw i8, ptr %10, i64 8
  %12 = load ptr, ptr %11, align 8, !tbaa !33
  store ptr %12, ptr %5, align 8, !tbaa !11
  %13 = load i32, ptr %10, align 8, !tbaa !35
  %14 = sext i32 %13 to i64
  %15 = call ptr @o2i_SCT_LIST(ptr noundef %0, ptr noundef nonnull %5, i64 noundef %14)
  %.not = icmp eq ptr %15, null
  br i1 %.not, label %19, label %16

16:                                               ; preds = %9
  %17 = load ptr, ptr %1, align 8, !tbaa !11
  %18 = getelementptr inbounds i8, ptr %17, i64 %2
  store ptr %18, ptr %1, align 8, !tbaa !11
  br label %19

19:                                               ; preds = %16, %9
  %20 = load ptr, ptr %4, align 8, !tbaa !31
  call void @ASN1_OCTET_STRING_free(ptr noundef %20) #4
  br label %21

21:                                               ; preds = %3, %19
  %.0 = phi ptr [ %15, %19 ], [ null, %3 ]
  call void @llvm.lifetime.end.p0(i64 8, ptr nonnull %5) #4
  call void @llvm.lifetime.end.p0(i64 8, ptr nonnull %4) #4
  ret ptr %.0
}